target datalayout = "e-m:e-p270:32:32-p271:32:32-p272:64:64-i64:64-i128:128-f80:128-n8:16:32:64-S128"
target triple = "x86_64-pc-linux-gnu"

@.str.26 = private unnamed_addr constant [110 x i8] c"generated/home/dtcxzyw/WorkSpace/Projects/compilers/llvm-opt-benchmark/bench/z3/z3/src/ast/dl_decl_plugin.cpp\00", align 1
@.str.27 = private unnamed_addr constant [29 x i8] c"UNEXPECTED CODE WAS REACHED.\00", align 1

; Function Attrs: mustprogress uwtable
define hidden noundef ptr @_ZN7datalog14dl_decl_plugin7mk_sortEijPK9parameter(ptr noundef nonnull align 8 dereferenceable(160) %0, i32 noundef %1, i32 noundef %2, ptr noundef %3) unnamed_addr #4 align 2 {
  %5 = alloca ptr, align 8
  %6 = alloca ptr, align 8
  %7 = alloca i32, align 4
  %8 = alloca i32, align 4
  %9 = alloca ptr, align 8
  store ptr %0, ptr %6, align 8, !tbaa !3
  store i32 %1, ptr %7, align 4, !tbaa !19
  store i32 %2, ptr %8, align 4, !tbaa !19
  store ptr %3, ptr %9, align 8, !tbaa !26
  %10 = load ptr, ptr %6, align 8
  %11 = load i32, ptr %7, align 4, !tbaa !19
  switch i32 %11, label %22 [
    i32 0, label %12
    i32 1, label %16
    i32 2, label %20
  ]

12:                                               ; preds = %4
  %13 = load i32, ptr %8, align 4, !tbaa !19
  %14 = load ptr, ptr %9, align 8, !tbaa !26
  %15 = call noundef ptr @_ZN7datalog14dl_decl_plugin16mk_relation_sortEjPK9parameter(ptr noundef nonnull align 8 dereferenceable(160) %10, i32 noundef %13, ptr noundef %14)
  store ptr %15, ptr %5, align 8
  br label %24

16:                                               ; preds = %4
  %17 = load i32, ptr %8, align 4, !tbaa !19
  %18 = load ptr, ptr %9, align 8, !tbaa !26
  %19 = call noundef ptr @_ZN7datalog14dl_decl_plugin14mk_finite_sortEjPK9parameter(ptr noundef nonnull align 8 dereferenceable(160) %10, i32 noundef %17, ptr noundef %18)
  store ptr %19, ptr %5, align 8
  br label %24

20:                                               ; preds = %4
  %21 = call noundef ptr @_ZN7datalog14dl_decl_plugin12mk_rule_sortEv(ptr noundef nonnull align 8 dereferenceable(160) %10)
  store ptr %21, ptr %5, align 8
  br label %24

22:                                               ; preds = %4
  call void @_Z26notify_assertion_violationPKciS0_(ptr noundef @.str.26, i32 noundef 131, ptr noundef @.str.27)
  call void @_Z18invoke_exit_actionj(i32 noundef 114)
  br label %23

23:                                               ; preds = %22
  store ptr null, ptr %5, align 8
  br label %24

24:                                               ; preds = %23, %20, %16, %12
  %25 = load ptr, ptr %5, align 8
  ret ptr %25
}