; Function Attrs: mustprogress uwtable
define hidden noundef ptr @_ZN7datalog14dl_decl_plugin7mk_sortEijPK9parameter(ptr noundef nonnull align 8 dereferenceable(160) %0, i32 noundef %1, i32 noundef %2, ptr noundef %3) unnamed_addr #3 align 2 {
  switch i32 %1, label %11 [
    i32 0, label %5
    i32 1, label %7
    i32 2, label %9
  ]

5:                                                ; preds = %4
  %6 = tail call noundef ptr @_ZN7datalog14dl_decl_plugin16mk_relation_sortEjPK9parameter(ptr noundef nonnull align 8 dereferenceable(160) %0, i32 noundef %2, ptr noundef %3)
  br label %12

7:                                                ; preds = %4
  %8 = tail call noundef ptr @_ZN7datalog14dl_decl_plugin14mk_finite_sortEjPK9parameter(ptr noundef nonnull align 8 dereferenceable(160) %0, i32 noundef %2, ptr noundef %3)
  br label %12

9:                                                ; preds = %4
  %10 = tail call noundef ptr @_ZN7datalog14dl_decl_plugin12mk_rule_sortEv(ptr noundef nonnull align 8 dereferenceable(160) %0)
  br label %12

11:                                               ; preds = %4
  tail call void @_Z26notify_assertion_violationPKciS0_(ptr noundef nonnull @.str.26, i32 noundef 131, ptr noundef nonnull @.str.27)
  tail call void @_Z18invoke_exit_actionj(i32 noundef 114)
  br label %12

12:                                               ; preds = %11, %9, %7, %5
  %.0 = phi ptr [ null, %11 ], [ %10, %9 ], [ %8, %7 ], [ %6, %5 ]
  ret ptr %.0
}